target datalayout = "e-m:e-p270:32:32-p271:32:32-p272:64:64-i64:64-i128:128-f80:128-n8:16:32:64-S128"
target triple = "x86_64-pc-linux-gnu"

%struct.SlabContext = type { %struct.MemoryContextData, i32, i32, i32, i32, i32, i32, %struct.dclist_head, [3 x %struct.dlist_head] }
%struct.MemoryContextData = type { i32, i8, i8, i64, ptr, ptr, ptr, ptr, ptr, ptr, ptr, ptr }
%struct.dclist_head = type { %struct.dlist_head, i32 }
%struct.dlist_head = type { %struct.dlist_node }
%struct.dlist_node = type { ptr, ptr }
%struct.dlist_mutable_iter = type { ptr, ptr, ptr }

; Function Attrs: inlinehint nounwind uwtable
define internal void @dlist_delete_from(ptr noundef %0, ptr noundef %1) #5 {
  %3 = alloca ptr, align 8
  %4 = alloca ptr, align 8
  store ptr %0, ptr %3, align 8
  store ptr %1, ptr %4, align 8
  %5 = load ptr, ptr %4, align 8
  call void @dlist_delete(ptr noundef %5)
  ret void
}

; Function Attrs: inlinehint nounwind uwtable
define internal void @dlist_delete(ptr noundef %0) #5 {
  %2 = alloca ptr, align 8
  store ptr %0, ptr %2, align 8
  %3 = load ptr, ptr %2, align 8
  %4 = getelementptr inbounds nuw %struct.dlist_node, ptr %3, i32 0, i32 1
  %5 = load ptr, ptr %4, align 8
  %6 = load ptr, ptr %2, align 8
  %7 = getelementptr inbounds nuw %struct.dlist_node, ptr %6, i32 0, i32 0
  %8 = load ptr, ptr %7, align 8
  %9 = getelementptr inbounds nuw %struct.dlist_node, ptr %8, i32 0, i32 1
  store ptr %5, ptr %9, align 8
  %10 = load ptr, ptr %2, align 8
  %11 = getelementptr inbounds nuw %struct.dlist_node, ptr %10, i32 0, i32 0
  %12 = load ptr, ptr %11, align 8
  %13 = load ptr, ptr %2, align 8
  %14 = getelementptr inbounds nuw %struct.dlist_node, ptr %13, i32 0, i32 1
  %15 = load ptr, ptr %14, align 8
  %16 = getelementptr inbounds nuw %struct.dlist_node, ptr %15, i32 0, i32 0
  store ptr %12, ptr %16, align 8
  ret void
}

; Function Attrs: inlinehint nounwind uwtable
define internal void @dclist_delete_from(ptr noundef %0, ptr noundef %1) #5 {
  %3 = alloca ptr, align 8
  %4 = alloca ptr, align 8
  store ptr %0, ptr %3, align 8
  store ptr %1, ptr %4, align 8
  %5 = load ptr, ptr %3, align 8
  %6 = getelementptr inbounds nuw %struct.dclist_head, ptr %5, i32 0, i32 0
  %7 = load ptr, ptr %4, align 8
  call void @dlist_delete_from(ptr noundef %6, ptr noundef %7)
  %8 = load ptr, ptr %3, align 8
  %9 = getelementptr inbounds nuw %struct.dclist_head, ptr %8, i32 0, i32 1
  %10 = load i32, ptr %9, align 8
  %11 = add i32 %10, -1
  store i32 %11, ptr %9, align 8
  ret void
}

; Function Attrs: nounwind uwtable
define dso_local void @SlabReset(ptr noundef %0) #0 {
  %2 = alloca ptr, align 8
  %3 = alloca ptr, align 8
  %4 = alloca %struct.dlist_mutable_iter, align 8
  %5 = alloca i32, align 4
  %6 = alloca i32, align 4
  %7 = alloca i32, align 4
  %8 = alloca ptr, align 8
  %9 = alloca i32, align 4
  %10 = alloca i32, align 4
  %11 = alloca i32, align 4
  %12 = alloca i32, align 4
  %13 = alloca ptr, align 8
  %14 = alloca i32, align 4
  %15 = alloca i32, align 4
  store ptr %0, ptr %2, align 8
  call void @llvm.lifetime.start.p0(i64 8, ptr %3) #10
  %16 = load ptr, ptr %2, align 8
  store ptr %16, ptr %3, align 8
  call void @llvm.lifetime.start.p0(i64 24, ptr %4) #10
  call void @llvm.lifetime.start.p0(i64 4, ptr %5) #10
  br label %17

17:                                               ; preds = %1
  br label %18

18:                                               ; preds = %17
  br label %19

19:                                               ; preds = %18
  store i32 1, ptr %6, align 4
  br label %20

20:                                               ; preds = %19
  br label %21

21:                                               ; preds = %20
  br label %22

22:                                               ; preds = %21
  store i32 1, ptr %7, align 4
  %23 = load ptr, ptr %3, align 8
  %24 = getelementptr inbounds nuw %struct.SlabContext, ptr %23, i32 0, i32 7
  %25 = getelementptr inbounds nuw %struct.dclist_head, ptr %24, i32 0, i32 0
  %26 = getelementptr inbounds nuw %struct.dlist_head, ptr %25, i32 0, i32 0
  %27 = getelementptr inbounds nuw %struct.dlist_mutable_iter, ptr %4, i32 0, i32 2
  store ptr %26, ptr %27, align 8
  %28 = getelementptr inbounds nuw %struct.dlist_mutable_iter, ptr %4, i32 0, i32 2
  %29 = load ptr, ptr %28, align 8
  %30 = getelementptr inbounds nuw %struct.dlist_node, ptr %29, i32 0, i32 1
  %31 = load ptr, ptr %30, align 8
  %32 = icmp ne ptr %31, null
  br i1 %32, label %33, label %38

33:                                               ; preds = %22
  %34 = getelementptr inbounds nuw %struct.dlist_mutable_iter, ptr %4, i32 0, i32 2
  %35 = load ptr, ptr %34, align 8
  %36 = getelementptr inbounds nuw %struct.dlist_node, ptr %35, i32 0, i32 1
  %37 = load ptr, ptr %36, align 8
  br label %41

38:                                               ; preds = %22
  %39 = getelementptr inbounds nuw %struct.dlist_mutable_iter, ptr %4, i32 0, i32 2
  %40 = load ptr, ptr %39, align 8
  br label %41

41:                                               ; preds = %38, %33
  %42 = phi ptr [ %37, %33 ], [ %40, %38 ]
  %43 = getelementptr inbounds nuw %struct.dlist_mutable_iter, ptr %4, i32 0, i32 0
  store ptr %42, ptr %43, align 8
  %44 = getelementptr inbounds nuw %struct.dlist_mutable_iter, ptr %4, i32 0, i32 0
  %45 = load ptr, ptr %44, align 8
  %46 = getelementptr inbounds nuw %struct.dlist_node, ptr %45, i32 0, i32 1
  %47 = load ptr, ptr %46, align 8
  %48 = getelementptr inbounds nuw %struct.dlist_mutable_iter, ptr %4, i32 0, i32 1
  store ptr %47, ptr %48, align 8
  br label %49

49:                                               ; preds = %78, %41
  %50 = getelementptr inbounds nuw %struct.dlist_mutable_iter, ptr %4, i32 0, i32 0
  %51 = load ptr, ptr %50, align 8
  %52 = getelementptr inbounds nuw %struct.dlist_mutable_iter, ptr %4, i32 0, i32 2
  %53 = load ptr, ptr %52, align 8
  %54 = icmp ne ptr %51, %53
  br i1 %54, label %55, label %87

55:                                               ; preds = %49
  call void @llvm.lifetime.start.p0(i64 8, ptr %8) #10
  br label %56

56:                                               ; preds = %55
  br label %57

57:                                               ; preds = %56
  br label %58

58:                                               ; preds = %57
  store i32 1, ptr %9, align 4
  br label %59

59:                                               ; preds = %58
  br label %60

60:                                               ; preds = %59
  br label %61

61:                                               ; preds = %60
  store i32 1, ptr %10, align 4
  %62 = getelementptr inbounds nuw %struct.dlist_mutable_iter, ptr %4, i32 0, i32 0
  %63 = load ptr, ptr %62, align 8
  %64 = getelementptr inbounds i8, ptr %63, i64 -32
  store ptr %64, ptr %8, align 8
  %65 = load ptr, ptr %3, align 8
  %66 = getelementptr inbounds nuw %struct.SlabContext, ptr %65, i32 0, i32 7
  %67 = getelementptr inbounds nuw %struct.dlist_mutable_iter, ptr %4, i32 0, i32 0
  %68 = load ptr, ptr %67, align 8
  call void @dclist_delete_from(ptr noundef %66, ptr noundef %68)
  %69 = load ptr, ptr %8, align 8
  call void @free(ptr noundef %69) #10
  %70 = load ptr, ptr %3, align 8
  %71 = getelementptr inbounds nuw %struct.SlabContext, ptr %70, i32 0, i32 3
  %72 = load i32, ptr %71, align 8
  %73 = zext i32 %72 to i64
  %74 = load ptr, ptr %2, align 8
  %75 = getelementptr inbounds nuw %struct.MemoryContextData, ptr %74, i32 0, i32 3
  %76 = load i64, ptr %75, align 8
  %77 = sub i64 %76, %73
  store i64 %77, ptr %75, align 8
  call void @llvm.lifetime.end.p0(i64 8, ptr %8) #10
  br label %78

78:                                               ; preds = %61
  %79 = getelementptr inbounds nuw %struct.dlist_mutable_iter, ptr %4, i32 0, i32 1
  %80 = load ptr, ptr %79, align 8
  %81 = getelementptr inbounds nuw %struct.dlist_mutable_iter, ptr %4, i32 0, i32 0
  store ptr %80, ptr %81, align 8
  %82 = getelementptr inbounds nuw %struct.dlist_mutable_iter, ptr %4, i32 0, i32 0
  %83 = load ptr, ptr %82, align 8
  %84 = getelementptr inbounds nuw %struct.dlist_node, ptr %83, i32 0, i32 1
  %85 = load ptr, ptr %84, align 8
  %86 = getelementptr inbounds nuw %struct.dlist_mutable_iter, ptr %4, i32 0, i32 1
  store ptr %85, ptr %86, align 8
  br label %49, !llvm.loop !7

87:                                               ; preds = %49
  store i32 0, ptr %5, align 4
  br label %88

88:                                               ; preds = %163, %87
  %89 = load i32, ptr %5, align 4
  %90 = icmp slt i32 %89, 3
  br i1 %90, label %91, label %166

91:                                               ; preds = %88
  br label %92

92:                                               ; preds = %91
  br label %93

93:                                               ; preds = %92
  br label %94

94:                                               ; preds = %93
  store i32 1, ptr %11, align 4
  br label %95

95:                                               ; preds = %94
  br label %96

96:                                               ; preds = %95
  br label %97

97:                                               ; preds = %96
  store i32 1, ptr %12, align 4
  %98 = load ptr, ptr %3, align 8
  %99 = getelementptr inbounds nuw %struct.SlabContext, ptr %98, i32 0, i32 8
  %100 = load i32, ptr %5, align 4
  %101 = sext i32 %100 to i64
  %102 = getelementptr inbounds [3 x %struct.dlist_head], ptr %99, i64 0, i64 %101
  %103 = getelementptr inbounds nuw %struct.dlist_head, ptr %102, i32 0, i32 0
  %104 = getelementptr inbounds nuw %struct.dlist_mutable_iter, ptr %4, i32 0, i32 2
  store ptr %103, ptr %104, align 8
  %105 = getelementptr inbounds nuw %struct.dlist_mutable_iter, ptr %4, i32 0, i32 2
  %106 = load ptr, ptr %105, align 8
  %107 = getelementptr inbounds nuw %struct.dlist_node, ptr %106, i32 0, i32 1
  %108 = load ptr, ptr %107, align 8
  %109 = icmp ne ptr %108, null
  br i1 %109, label %110, label %115

110:                                              ; preds = %97
  %111 = getelementptr inbounds nuw %struct.dlist_mutable_iter, ptr %4, i32 0, i32 2
  %112 = load ptr, ptr %111, align 8
  %113 = getelementptr inbounds nuw %struct.dlist_node, ptr %112, i32 0, i32 1
  %114 = load ptr, ptr %113, align 8
  br label %118

115:                                              ; preds = %97
  %116 = getelementptr inbounds nuw %struct.dlist_mutable_iter, ptr %4, i32 0, i32 2
  %117 = load ptr, ptr %116, align 8
  br label %118

118:                                              ; preds = %115, %110
  %119 = phi ptr [ %114, %110 ], [ %117, %115 ]
  %120 = getelementptr inbounds nuw %struct.dlist_mutable_iter, ptr %4, i32 0, i32 0
  store ptr %119, ptr %120, align 8
  %121 = getelementptr inbounds nuw %struct.dlist_mutable_iter, ptr %4, i32 0, i32 0
  %122 = load ptr, ptr %121, align 8
  %123 = getelementptr inbounds nuw %struct.dlist_node, ptr %122, i32 0, i32 1
  %124 = load ptr, ptr %123, align 8
  %125 = getelementptr inbounds nuw %struct.dlist_mutable_iter, ptr %4, i32 0, i32 1
  store ptr %124, ptr %125, align 8
  br label %126

126:                                              ; preds = %153, %118
  %127 = getelementptr inbounds nuw %struct.dlist_mutable_iter, ptr %4, i32 0, i32 0
  %128 = load ptr, ptr %127, align 8
  %129 = getelementptr inbounds nuw %struct.dlist_mutable_iter, ptr %4, i32 0, i32 2
  %130 = load ptr, ptr %129, align 8
  %131 = icmp ne ptr %128, %130
  br i1 %131, label %132, label %162

132:                                              ; preds = %126
  call void @llvm.lifetime.start.p0(i64 8, ptr %13) #10
  br label %133

133:                                              ; preds = %132
  br label %134

134:                                              ; preds = %133
  br label %135

135:                                              ; preds = %134
  store i32 1, ptr %14, align 4
  br label %136

136:                                              ; preds = %135
  br label %137

137:                                              ; preds = %136
  br label %138

138:                                              ; preds = %137
  store i32 1, ptr %15, align 4
  %139 = getelementptr inbounds nuw %struct.dlist_mutable_iter, ptr %4, i32 0, i32 0
  %140 = load ptr, ptr %139, align 8
  %141 = getelementptr inbounds i8, ptr %140, i64 -32
  store ptr %141, ptr %13, align 8
  %142 = getelementptr inbounds nuw %struct.dlist_mutable_iter, ptr %4, i32 0, i32 0
  %143 = load ptr, ptr %142, align 8
  call void @dlist_delete(ptr noundef %143)
  %144 = load ptr, ptr %13, align 8
  call void @free(ptr noundef %144) #10
  %145 = load ptr, ptr %3, align 8
  %146 = getelementptr inbounds nuw %struct.SlabContext, ptr %145, i32 0, i32 3
  %147 = load i32, ptr %146, align 8
  %148 = zext i32 %147 to i64
  %149 = load ptr, ptr %2, align 8
  %150 = getelementptr inbounds nuw %struct.MemoryContextData, ptr %149, i32 0, i32 3
  %151 = load i64, ptr %150, align 8
  %152 = sub i64 %151, %148
  store i64 %152, ptr %150, align 8
  call void @llvm.lifetime.end.p0(i64 8, ptr %13) #10
  br label %153

153:                                              ; preds = %138
  %154 = getelementptr inbounds nuw %struct.dlist_mutable_iter, ptr %4, i32 0, i32 1
  %155 = load ptr, ptr %154, align 8
  %156 = getelementptr inbounds nuw %struct.dlist_mutable_iter, ptr %4, i32 0, i32 0
  store ptr %155, ptr %156, align 8
  %157 = getelementptr inbounds nuw %struct.dlist_mutable_iter, ptr %4, i32 0, i32 0
  %158 = load ptr, ptr %157, align 8
  %159 = getelementptr inbounds nuw %struct.dlist_node, ptr %158, i32 0, i32 1
  %160 = load ptr, ptr %159, align 8
  %161 = getelementptr inbounds nuw %struct.dlist_mutable_iter, ptr %4, i32 0, i32 1
  store ptr %160, ptr %161, align 8
  br label %126, !llvm.loop !8

162:                                              ; preds = %126
  br label %163

163:                                              ; preds = %162
  %164 = load i32, ptr %5, align 4
  %165 = add i32 %164, 1
  store i32 %165, ptr %5, align 4
  br label %88, !llvm.loop !9

166:                                              ; preds = %88
  %167 = load ptr, ptr %3, align 8
  %168 = getelementptr inbounds nuw %struct.SlabContext, ptr %167, i32 0, i32 5
  store i32 0, ptr %168, align 8
  call void @llvm.lifetime.end.p0(i64 4, ptr %5) #10
  call void @llvm.lifetime.end.p0(i64 24, ptr %4) #10
  call void @llvm.lifetime.end.p0(i64 8, ptr %3) #10
  ret void
}