; Function Attrs: nounwind uwtable
define dso_local void @SlabReset(ptr noundef captures(address) %0) local_unnamed_addr #0 {
  %2 = getelementptr inbounds nuw i8, ptr %0, i64 104
  %3 = getelementptr inbounds nuw i8, ptr %0, i64 112
  %4 = load ptr, ptr %3, align 8
  %.not = icmp eq ptr %4, null
  %.not333743 = icmp eq ptr %4, %2
  %.not3337 = select i1 %.not, i1 true, i1 %.not333743
  br i1 %.not3337, label %.preheader, label %.lr.ph

.lr.ph:                                           ; preds = %1
  %5 = getelementptr inbounds nuw i8, ptr %0, i64 120
  %6 = getelementptr inbounds nuw i8, ptr %0, i64 88
  %7 = getelementptr inbounds nuw i8, ptr %0, i64 8
  br label %11

.preheader:                                       ; preds = %11, %1
  %8 = getelementptr inbounds nuw i8, ptr %0, i64 128
  %9 = getelementptr inbounds nuw i8, ptr %0, i64 88
  %10 = getelementptr inbounds nuw i8, ptr %0, i64 8
  br label %22

11:                                               ; preds = %.lr.ph, %11
  %.sroa.0.038 = phi ptr [ %4, %.lr.ph ], [ %.sroa.16.0, %11 ]
  %.sroa.16.0.in = getelementptr inbounds nuw i8, ptr %.sroa.0.038, i64 8
  %.sroa.16.0 = load ptr, ptr %.sroa.16.0.in, align 8
  %12 = getelementptr inbounds i8, ptr %.sroa.0.038, i64 -32
  %13 = load ptr, ptr %.sroa.0.038, align 8
  %14 = getelementptr inbounds nuw i8, ptr %13, i64 8
  store ptr %.sroa.16.0, ptr %14, align 8
  %15 = load ptr, ptr %.sroa.0.038, align 8
  store ptr %15, ptr %.sroa.16.0, align 8
  %16 = load i32, ptr %5, align 8
  %17 = add i32 %16, -1
  store i32 %17, ptr %5, align 8
  tail call void @free(ptr noundef nonnull %12) #13
  %18 = load i32, ptr %6, align 8
  %19 = zext i32 %18 to i64
  %20 = load i64, ptr %7, align 8
  %21 = sub i64 %20, %19
  store i64 %21, ptr %7, align 8
  %.not33 = icmp eq ptr %.sroa.16.0, %2
  br i1 %.not33, label %.preheader, label %11, !llvm.loop !7

22:                                               ; preds = %.preheader, %._crit_edge
  %indvars.iv = phi i64 [ 0, %.preheader ], [ %indvars.iv.next, %._crit_edge ]
  %23 = getelementptr inbounds nuw [3 x %struct.dlist_head], ptr %8, i64 0, i64 %indvars.iv
  %24 = getelementptr inbounds nuw i8, ptr %23, i64 8
  %25 = load ptr, ptr %24, align 8
  %.not34 = icmp eq ptr %25, null
  %.not353945 = icmp eq ptr %25, %23
  %.not3539 = or i1 %.not34, %.not353945
  br i1 %.not3539, label %._crit_edge, label %.lr.ph41

.lr.ph41:                                         ; preds = %22, %.lr.ph41
  %.sroa.0.140 = phi ptr [ %.sroa.16.1, %.lr.ph41 ], [ %25, %22 ]
  %.sroa.16.1.in = getelementptr inbounds nuw i8, ptr %.sroa.0.140, i64 8
  %.sroa.16.1 = load ptr, ptr %.sroa.16.1.in, align 8
  %26 = getelementptr inbounds i8, ptr %.sroa.0.140, i64 -32
  %27 = load ptr, ptr %.sroa.0.140, align 8
  %28 = getelementptr inbounds nuw i8, ptr %27, i64 8
  store ptr %.sroa.16.1, ptr %28, align 8
  %29 = load ptr, ptr %.sroa.0.140, align 8
  store ptr %29, ptr %.sroa.16.1, align 8
  tail call void @free(ptr noundef nonnull %26) #13
  %30 = load i32, ptr %9, align 8
  %31 = zext i32 %30 to i64
  %32 = load i64, ptr %10, align 8
  %33 = sub i64 %32, %31
  store i64 %33, ptr %10, align 8
  %.not35 = icmp eq ptr %.sroa.16.1, %23
  br i1 %.not35, label %._crit_edge, label %.lr.ph41, !llvm.loop !8

._crit_edge:                                      ; preds = %.lr.ph41, %22
  %indvars.iv.next = add nuw nsw i64 %indvars.iv, 1
  %exitcond.not = icmp eq i64 %indvars.iv.next, 3
  br i1 %exitcond.not, label %34, label %22, !llvm.loop !9

34:                                               ; preds = %._crit_edge
  %35 = getelementptr inbounds nuw i8, ptr %0, i64 96
  store i32 0, ptr %35, align 8
  ret void
}